; Function Attrs: mustprogress nounwind uwtable
define internal void @_ZNK12_GLOBAL__N_117StackSlotColoring16getAnalysisUsageERN4llvm13AnalysisUsageE(ptr noundef nonnull align 8 dereferenceable(5712) %0, ptr noundef nonnull align 8 dereferenceable(161) %1) unnamed_addr #0 align 2 {
  tail call void @_ZN4llvm13AnalysisUsage15setPreservesCFGEv(ptr noundef nonnull align 8 dereferenceable(161) %1) #18
  %3 = tail call noundef nonnull align 8 dereferenceable(161) ptr @_ZN4llvm13AnalysisUsage13addRequiredIDERc(ptr noundef nonnull align 8 dereferenceable(161) %1, ptr noundef nonnull align 1 dereferenceable(1) @_ZN4llvm22SlotIndexesWrapperPass2IDE) #18
  %4 = getelementptr inbounds nuw i8, ptr %1, i64 112
  tail call void @_ZN4llvm13AnalysisUsage10pushUniqueERNS_15SmallVectorImplIPKvEES3_(ptr noundef nonnull align 8 dereferenceable(161) %1, ptr noundef nonnull align 8 dereferenceable(16) %4, ptr noundef nonnull @_ZN4llvm22SlotIndexesWrapperPass2IDE)
  %5 = tail call noundef nonnull align 8 dereferenceable(161) ptr @_ZN4llvm13AnalysisUsage13addRequiredIDERc(ptr noundef nonnull align 8 dereferenceable(161) %1, ptr noundef nonnull align 1 dereferenceable(1) @_ZN4llvm10LiveStacks2IDE) #18
  %6 = tail call noundef nonnull align 8 dereferenceable(161) ptr @_ZN4llvm13AnalysisUsage13addRequiredIDERc(ptr noundef nonnull align 8 dereferenceable(161) %1, ptr noundef nonnull align 1 dereferenceable(1) @_ZN4llvm36MachineBlockFrequencyInfoWrapperPass2IDE) #18
  tail call void @_ZN4llvm13AnalysisUsage10pushUniqueERNS_15SmallVectorImplIPKvEES3_(ptr noundef nonnull align 8 dereferenceable(161) %1, ptr noundef nonnull align 8 dereferenceable(16) %4, ptr noundef nonnull @_ZN4llvm36MachineBlockFrequencyInfoWrapperPass2IDE)
  %7 = load ptr, ptr @_ZN4llvm19MachineDominatorsIDE, align 8
  tail call void @_ZN4llvm13AnalysisUsage10pushUniqueERNS_15SmallVectorImplIPKvEES3_(ptr noundef nonnull align 8 dereferenceable(161) %1, ptr noundef nonnull align 8 dereferenceable(16) %4, ptr noundef nonnull align 1 dereferenceable(1) %7)
  tail call void @_ZN4llvm13AnalysisUsage10pushUniqueERNS_15SmallVectorImplIPKvEES3_(ptr noundef nonnull align 8 dereferenceable(161) %1, ptr noundef nonnull align 8 dereferenceable(16) %4, ptr noundef nonnull @_ZN4llvm24LiveIntervalsWrapperPass2IDE)
  tail call void @_ZN4llvm13AnalysisUsage10pushUniqueERNS_15SmallVectorImplIPKvEES3_(ptr noundef nonnull align 8 dereferenceable(161) %1, ptr noundef nonnull align 8 dereferenceable(16) %4, ptr noundef nonnull @_ZN4llvm18LiveDebugVariables2IDE)
  tail call void @_ZNK4llvm19MachineFunctionPass16getAnalysisUsageERNS_13AnalysisUsageE(ptr noundef nonnull align 8 dereferenceable(56) %0, ptr noundef nonnull align 8 dereferenceable(161) %1) #18
  ret void
}